; Function Attrs: mustprogress uwtable
define hidden void @_ZNK6solver14get_assertionsEv(ptr dead_on_unwind noalias writable sret(%class.ref_vector) align 8 initializes((0, 16)) %0, ptr noundef nonnull align 8 dereferenceable(96) %1) local_unnamed_addr #3 align 2 personality ptr @__gxx_personality_v0 {
  %3 = load ptr, ptr %1, align 8, !tbaa !3
  %4 = getelementptr inbounds nuw i8, ptr %3, i64 72
  %5 = load ptr, ptr %4, align 8
  %6 = tail call noundef nonnull align 8 dereferenceable(976) ptr %5(ptr noundef nonnull align 8 dereferenceable(72) %1)
  %7 = ptrtoint ptr %6 to i64
  store i64 %7, ptr %0, align 8, !tbaa !6
  %8 = getelementptr inbounds nuw i8, ptr %0, i64 8
  store ptr null, ptr %8, align 8, !tbaa !10
  %9 = load ptr, ptr %1, align 8, !tbaa !3
  %10 = getelementptr inbounds nuw i8, ptr %9, i64 232
  %11 = load ptr, ptr %10, align 8
  %12 = invoke noundef i32 %11(ptr noundef nonnull align 8 dereferenceable(96) %1)
          to label %.noexc unwind label %.loopexit.split-lp

.noexc:                                           ; preds = %2
  %.not.i = icmp eq i32 %12, 0
  br i1 %.not.i, label %_ZNK6solver14get_assertionsER10ref_vectorI4expr11ast_managerE.exit, label %.lr.ph.i

.lr.ph.i:                                         ; preds = %.noexc, %_ZN15ref_vector_coreI4expr19ref_manager_wrapperIS0_11ast_managerEE9push_backEPS0_.exit.i
  %.05.i = phi i32 [ %36, %_ZN15ref_vector_coreI4expr19ref_manager_wrapperIS0_11ast_managerEE9push_backEPS0_.exit.i ], [ 0, %.noexc ]
  %13 = load ptr, ptr %1, align 8, !tbaa !3
  %14 = getelementptr inbounds nuw i8, ptr %13, i64 240
  %15 = load ptr, ptr %14, align 8
  %16 = invoke noundef ptr %15(ptr noundef nonnull align 8 dereferenceable(96) %1, i32 noundef %.05.i)
          to label %.noexc3 unwind label %.loopexit

.noexc3:                                          ; preds = %.lr.ph.i
  %.not.i.i.i.i.i = icmp eq ptr %16, null
  br i1 %.not.i.i.i.i.i, label %_ZN15ref_vector_coreI4expr19ref_manager_wrapperIS0_11ast_managerEE7inc_refEPS0_.exit.i.i, label %17

17:                                               ; preds = %.noexc3
  %18 = getelementptr inbounds nuw i8, ptr %16, i64 8
  %19 = load i32, ptr %18, align 4, !tbaa !14
  %20 = add i32 %19, 1
  store i32 %20, ptr %18, align 4, !tbaa !14
  br label %_ZN15ref_vector_coreI4expr19ref_manager_wrapperIS0_11ast_managerEE7inc_refEPS0_.exit.i.i

_ZN15ref_vector_coreI4expr19ref_manager_wrapperIS0_11ast_managerEE7inc_refEPS0_.exit.i.i: ; preds = %17, %.noexc3
  %21 = load ptr, ptr %8, align 8, !tbaa !10
  %22 = icmp eq ptr %21, null
  br i1 %22, label %29, label %23

23:                                               ; preds = %_ZN15ref_vector_coreI4expr19ref_manager_wrapperIS0_11ast_managerEE7inc_refEPS0_.exit.i.i
  %24 = getelementptr inbounds i8, ptr %21, i64 -4
  %25 = load i32, ptr %24, align 4, !tbaa !17
  %26 = getelementptr inbounds i8, ptr %21, i64 -8
  %27 = load i32, ptr %26, align 4, !tbaa !17
  %28 = icmp eq i32 %25, %27
  br i1 %28, label %29, label %_ZN15ref_vector_coreI4expr19ref_manager_wrapperIS0_11ast_managerEE9push_backEPS0_.exit.i

29:                                               ; preds = %23, %_ZN15ref_vector_coreI4expr19ref_manager_wrapperIS0_11ast_managerEE7inc_refEPS0_.exit.i.i
  invoke void @_ZN6vectorIP4exprLb0EjE13expand_vectorEv(ptr noundef nonnull align 8 dereferenceable(8) %8)
          to label %.noexc4 unwind label %.loopexit

.noexc4:                                          ; preds = %29
  %.pre.i.i.i = load ptr, ptr %8, align 8, !tbaa !10
  %.phi.trans.insert.i.i.i = getelementptr inbounds i8, ptr %.pre.i.i.i, i64 -4
  %.pre2.i.i.i = load i32, ptr %.phi.trans.insert.i.i.i, align 4, !tbaa !17
  br label %_ZN15ref_vector_coreI4expr19ref_manager_wrapperIS0_11ast_managerEE9push_backEPS0_.exit.i

_ZN15ref_vector_coreI4expr19ref_manager_wrapperIS0_11ast_managerEE9push_backEPS0_.exit.i: ; preds = %.noexc4, %23
  %30 = phi i32 [ %.pre2.i.i.i, %.noexc4 ], [ %25, %23 ]
  %31 = phi ptr [ %.pre.i.i.i, %.noexc4 ], [ %21, %23 ]
  %32 = getelementptr inbounds i8, ptr %31, i64 -4
  %33 = zext i32 %30 to i64
  %34 = getelementptr inbounds nuw ptr, ptr %31, i64 %33
  store ptr %16, ptr %34, align 8, !tbaa !18
  %35 = add i32 %30, 1
  store i32 %35, ptr %32, align 4, !tbaa !17
  %36 = add nuw i32 %.05.i, 1
  %exitcond.not.i = icmp eq i32 %36, %12
  br i1 %exitcond.not.i, label %_ZNK6solver14get_assertionsER10ref_vectorI4expr11ast_managerE.exit, label %.lr.ph.i, !llvm.loop !20

.loopexit:                                        ; preds = %.lr.ph.i, %29
  %lpad.loopexit = landingpad { ptr, i32 }
          cleanup
  br label %37

.loopexit.split-lp:                               ; preds = %2
  %lpad.loopexit.split-lp = landingpad { ptr, i32 }
          cleanup
  br label %37

37:                                               ; preds = %.loopexit.split-lp, %.loopexit
  %lpad.phi = phi { ptr, i32 } [ %lpad.loopexit, %.loopexit ], [ %lpad.loopexit.split-lp, %.loopexit.split-lp ]
  tail call void @_ZN15ref_vector_coreI4expr19ref_manager_wrapperIS0_11ast_managerEED2Ev(ptr noundef nonnull align 8 dereferenceable(16) %0) #25
  resume { ptr, i32 } %lpad.phi

_ZNK6solver14get_assertionsER10ref_vectorI4expr11ast_managerE.exit: ; preds = %_ZN15ref_vector_coreI4expr19ref_manager_wrapperIS0_11ast_managerEE9push_backEPS0_.exit.i, %.noexc
  ret void
}